target datalayout = "e-m:e-p270:32:32-p271:32:32-p272:64:64-i64:64-i128:128-f80:128-n8:16:32:64-S128"
target triple = "x86_64-unknown-linux-gnu"

%struct.SemihostingConsole = type { %struct.CharBackend, ptr, ptr, i8, %struct.Fifo8 }
%struct.CharBackend = type { ptr, ptr, ptr, ptr, ptr, ptr, i32, i32 }
%struct.Fifo8 = type { ptr, i32, i32, i32 }

@console = internal global %struct.SemihostingConsole zeroinitializer, align 8
@error_abort = external global ptr, align 8

; Function Attrs: nounwind sspstrong uwtable
define dso_local void @qemu_semihosting_console_init(ptr noundef %chr) #0 {
entry:
  %chr.addr = alloca ptr, align 8
  store ptr %chr, ptr %chr.addr, align 8
  %0 = load ptr, ptr %chr.addr, align 8
  %1 = getelementptr inbounds %struct.SemihostingConsole, ptr @console, i32 0, i32 1
  store ptr %0, ptr %1, align 8
  %2 = load ptr, ptr %chr.addr, align 8
  %tobool = icmp ne ptr %2, null
  br i1 %tobool, label %if.then, label %if.end

if.then:                                          ; preds = %entry
  %3 = getelementptr inbounds %struct.SemihostingConsole, ptr @console, i32 0, i32 4
  call void @fifo8_create(ptr noundef %3, i32 noundef 1024)
  %4 = load ptr, ptr %chr.addr, align 8
  %call = call zeroext i1 @qemu_chr_fe_init(ptr noundef @console, ptr noundef %4, ptr noundef @error_abort)
  call void @qemu_chr_fe_set_handlers(ptr noundef @console, ptr noundef @console_can_read, ptr noundef @console_read, ptr noundef null, ptr noundef null, ptr noundef @console, ptr noundef null, i1 noundef zeroext true)
  br label %if.end

if.end:                                           ; preds = %if.then, %entry
  call void @qemu_semihosting_guestfd_init()
  ret void
}