; Function Attrs: nounwind sspstrong uwtable
define dso_local void @qemu_semihosting_console_init(ptr noundef %chr) local_unnamed_addr #0 {
entry:
  store ptr %chr, ptr getelementptr inbounds nuw (i8, ptr @console, i64 56), align 8
  %tobool.not = icmp eq ptr %chr, null
  br i1 %tobool.not, label %if.end, label %if.then

if.then:                                          ; preds = %entry
  tail call void @fifo8_create(ptr noundef nonnull getelementptr inbounds nuw (i8, ptr @console, i64 80), i32 noundef 1024) #5
  %call = tail call zeroext i1 @qemu_chr_fe_init(ptr noundef nonnull @console, ptr noundef nonnull %chr, ptr noundef nonnull @error_abort) #5
  tail call void @qemu_chr_fe_set_handlers(ptr noundef nonnull @console, ptr noundef nonnull @console_can_read, ptr noundef nonnull @console_read, ptr noundef null, ptr noundef null, ptr noundef nonnull @console, ptr noundef null, i1 noundef zeroext true) #5
  br label %if.end

if.end:                                           ; preds = %if.then, %entry
  tail call void @qemu_semihosting_guestfd_init() #5
  ret void
}